target datalayout = "e-m:e-p270:32:32-p271:32:32-p272:64:64-i64:64-i128:128-f80:128-n8:16:32:64-S128"
target triple = "x86_64-pc-linux-gnu"

%"struct.cvtest::TestInfo" = type <{ ptr, i32, [4 x i8], i64, i64, i32, [4 x i8] }>

; Function Attrs: mustprogress nounwind uwtable
define hidden void @_ZN6cvtest8TestInfoC2Ev(ptr noundef nonnull align 8 dereferenceable(36) %0) unnamed_addr #7 align 2 {
  %2 = alloca ptr, align 8
  store ptr %0, ptr %2, align 8, !tbaa !85
  %3 = load ptr, ptr %2, align 8
  %4 = getelementptr inbounds nuw %"struct.cvtest::TestInfo", ptr %3, i32 0, i32 0
  store ptr null, ptr %4, align 8, !tbaa !87
  %5 = getelementptr inbounds nuw %"struct.cvtest::TestInfo", ptr %3, i32 0, i32 1
  store i32 0, ptr %5, align 8, !tbaa !88
  %6 = getelementptr inbounds nuw %"struct.cvtest::TestInfo", ptr %3, i32 0, i32 4
  store i64 0, ptr %6, align 8, !tbaa !89
  %7 = getelementptr inbounds nuw %"struct.cvtest::TestInfo", ptr %3, i32 0, i32 3
  store i64 0, ptr %7, align 8, !tbaa !90
  %8 = getelementptr inbounds nuw %"struct.cvtest::TestInfo", ptr %3, i32 0, i32 5
  store i32 -1, ptr %8, align 8, !tbaa !91
  ret void
}