; Function Attrs: mustprogress nofree norecurse nosync nounwind willreturn memory(argmem: write) uwtable
define hidden void @_ZN6cvtest8TestInfoC2Ev(ptr noundef nonnull writeonly align 8 captures(none) dereferenceable(36) initializes((0, 12), (16, 36)) %0) unnamed_addr #25 align 2 {
  store ptr null, ptr %0, align 8, !tbaa !88
  %2 = getelementptr inbounds nuw i8, ptr %0, i64 8
  store i32 0, ptr %2, align 8, !tbaa !89
  %3 = getelementptr inbounds nuw i8, ptr %0, i64 16
  %4 = getelementptr inbounds nuw i8, ptr %0, i64 32
  tail call void @llvm.memset.p0.i64(ptr noundef nonnull align 8 dereferenceable(16) %3, i8 0, i64 16, i1 false)
  store i32 -1, ptr %4, align 8, !tbaa !90
  ret void
}